ccopy_reg
_reconstructor
p0
(cgoogle.oauth2.credentials
Credentials
p1
c__builtin__
object
p2
Ntp3
Rp4
(dp5
S'_token_uri'
p6
Vhttps://oauth2.googleapis.com/token
p7
sS'_scopes'
p8
(lp9
S'https://www.googleapis.com/auth/drive'
p10
asS'_id_token'
p11
NsS'token'
p12
Vya29.GlwhB2xTnhl9eIesIJnLMyE0x7yCLc03EaXPZBkth_2nPomDsXS_zqU8Ty4gxTKVFzBYGy97QYe-vVkZQDEA91_EsZBgRjzMdu42itAITcZwZ4E5n5KquWQhfo20lw
p13
sS'_refresh_token'
p14
V1/Ki7xOyuC7m-Pvqi5u5j-G3CzxiLWMcAL9hVDbiE0gh8
p15
sS'_client_secret'
p16
VFAa7CJ9XEpNSlyYtWm7yj3NS
p17
sS'_client_id'
p18
V836751357468-t27ts6sk8q30p5ivt8us1fso2ero0mhk.apps.googleusercontent.com
p19
sS'expiry'
p20
cdatetime
datetime
p21
(S'\x07\xe3\x06\x06\x16\x14\x07\n\x17\xce'
p22
tp23
Rp24
sb.